target datalayout = "e-m:e-p270:32:32-p271:32:32-p272:64:64-i64:64-i128:128-f80:128-n8:16:32:64-S128"
target triple = "x86_64-pc-linux-gnu"

%struct.strbuf = type { i64, i64, ptr }
%struct.sockaddr_un = type { i16, [108 x i8] }
%struct.unix_sockaddr_context = type { ptr }

@__const.unix_sockaddr_init.cwd = private unnamed_addr constant %struct.strbuf { i64 0, i64 0, ptr @strbuf_slopbuf }, align 8

; Function Attrs: nounwind uwtable
define internal i32 @chdir_len(ptr noundef %0, i32 noundef %1) #0 {
  %3 = alloca ptr, align 8
  %4 = alloca i32, align 4
  %5 = alloca ptr, align 8
  %6 = alloca i32, align 4
  store ptr %0, ptr %3, align 8, !tbaa !4
  store i32 %1, ptr %4, align 4, !tbaa !9
  call void @llvm.lifetime.start.p0(i64 8, ptr %5) #10
  %7 = load ptr, ptr %3, align 8, !tbaa !4
  %8 = load i32, ptr %4, align 4, !tbaa !9
  %9 = sext i32 %8 to i64
  %10 = call ptr @xmemdupz(ptr noundef %7, i64 noundef %9)
  store ptr %10, ptr %5, align 8, !tbaa !4
  call void @llvm.lifetime.start.p0(i64 4, ptr %6) #10
  %11 = load ptr, ptr %5, align 8, !tbaa !4
  %12 = call i32 @chdir(ptr noundef %11) #10
  store i32 %12, ptr %6, align 4, !tbaa !9
  %13 = load ptr, ptr %5, align 8, !tbaa !4
  call void @free(ptr noundef %13) #10
  %14 = load i32, ptr %6, align 4, !tbaa !9
  call void @llvm.lifetime.end.p0(i64 4, ptr %6) #10
  call void @llvm.lifetime.end.p0(i64 8, ptr %5) #10
  ret i32 %14
}

; Function Attrs: inlinehint nounwind uwtable
define internal ptr @git_find_last_dir_sep(ptr noundef %0) #7 {
  %2 = alloca ptr, align 8
  store ptr %0, ptr %2, align 8, !tbaa !4
  %3 = load ptr, ptr %2, align 8, !tbaa !4
  %4 = call ptr @strrchr(ptr noundef %3, i32 noundef 47) #12
  ret ptr %4
}

; Function Attrs: nounwind uwtable
define internal i32 @unix_sockaddr_init(ptr noundef %0, ptr noundef %1, ptr noundef %2, i32 noundef %3) #0 {
  %5 = alloca i32, align 4
  %6 = alloca ptr, align 8
  %7 = alloca ptr, align 8
  %8 = alloca ptr, align 8
  %9 = alloca i32, align 4
  %10 = alloca i32, align 4
  %11 = alloca ptr, align 8
  %12 = alloca ptr, align 8
  %13 = alloca %struct.strbuf, align 8
  %14 = alloca i32, align 4
  store ptr %0, ptr %6, align 8, !tbaa !12
  store ptr %1, ptr %7, align 8, !tbaa !4
  store ptr %2, ptr %8, align 8, !tbaa !14
  store i32 %3, ptr %9, align 4, !tbaa !9
  call void @llvm.lifetime.start.p0(i64 4, ptr %10) #10
  %15 = load ptr, ptr %7, align 8, !tbaa !4
  %16 = call i64 @strlen(ptr noundef %15) #12
  %17 = add i64 %16, 1
  %18 = trunc i64 %17 to i32
  store i32 %18, ptr %10, align 4, !tbaa !9
  %19 = load ptr, ptr %8, align 8, !tbaa !14
  %20 = getelementptr inbounds nuw %struct.unix_sockaddr_context, ptr %19, i32 0, i32 0
  store ptr null, ptr %20, align 8, !tbaa !16
  %21 = load i32, ptr %10, align 4, !tbaa !9
  %22 = sext i32 %21 to i64
  %23 = icmp ugt i64 %22, 108
  br i1 %23, label %24, label %71

24:                                               ; preds = %4
  call void @llvm.lifetime.start.p0(i64 8, ptr %11) #10
  call void @llvm.lifetime.start.p0(i64 8, ptr %12) #10
  call void @llvm.lifetime.start.p0(i64 24, ptr %13) #10
  call void @llvm.memcpy.p0.p0.i64(ptr align 8 %13, ptr align 8 @__const.unix_sockaddr_init.cwd, i64 24, i1 false)
  %25 = load i32, ptr %9, align 4, !tbaa !9
  %26 = icmp ne i32 %25, 0
  br i1 %26, label %27, label %29

27:                                               ; preds = %24
  %28 = call ptr @__errno_location() #11
  store i32 36, ptr %28, align 4, !tbaa !9
  store i32 -1, ptr %5, align 4
  store i32 1, ptr %14, align 4
  br label %68

29:                                               ; preds = %24
  %30 = load ptr, ptr %7, align 8, !tbaa !4
  %31 = call ptr @git_find_last_dir_sep(ptr noundef %30)
  store ptr %31, ptr %11, align 8, !tbaa !4
  %32 = load ptr, ptr %11, align 8, !tbaa !4
  %33 = icmp ne ptr %32, null
  br i1 %33, label %36, label %34

34:                                               ; preds = %29
  %35 = call ptr @__errno_location() #11
  store i32 36, ptr %35, align 4, !tbaa !9
  store i32 -1, ptr %5, align 4
  store i32 1, ptr %14, align 4
  br label %68

36:                                               ; preds = %29
  %37 = load ptr, ptr %7, align 8, !tbaa !4
  store ptr %37, ptr %12, align 8, !tbaa !4
  %38 = load ptr, ptr %11, align 8, !tbaa !4
  %39 = getelementptr inbounds i8, ptr %38, i64 1
  store ptr %39, ptr %7, align 8, !tbaa !4
  %40 = load ptr, ptr %7, align 8, !tbaa !4
  %41 = call i64 @strlen(ptr noundef %40) #12
  %42 = add i64 %41, 1
  %43 = trunc i64 %42 to i32
  store i32 %43, ptr %10, align 4, !tbaa !9
  %44 = load i32, ptr %10, align 4, !tbaa !9
  %45 = sext i32 %44 to i64
  %46 = icmp ugt i64 %45, 108
  br i1 %46, label %47, label %49

47:                                               ; preds = %36
  %48 = call ptr @__errno_location() #11
  store i32 36, ptr %48, align 4, !tbaa !9
  store i32 -1, ptr %5, align 4
  store i32 1, ptr %14, align 4
  br label %68

49:                                               ; preds = %36
  %50 = call i32 @strbuf_getcwd(ptr noundef %13)
  %51 = icmp ne i32 %50, 0
  br i1 %51, label %52, label %53

52:                                               ; preds = %49
  store i32 -1, ptr %5, align 4
  store i32 1, ptr %14, align 4
  br label %68

53:                                               ; preds = %49
  %54 = call ptr @strbuf_detach(ptr noundef %13, ptr noundef null)
  %55 = load ptr, ptr %8, align 8, !tbaa !14
  %56 = getelementptr inbounds nuw %struct.unix_sockaddr_context, ptr %55, i32 0, i32 0
  store ptr %54, ptr %56, align 8, !tbaa !16
  %57 = load ptr, ptr %12, align 8, !tbaa !4
  %58 = load ptr, ptr %11, align 8, !tbaa !4
  %59 = load ptr, ptr %12, align 8, !tbaa !4
  %60 = ptrtoint ptr %58 to i64
  %61 = ptrtoint ptr %59 to i64
  %62 = sub i64 %60, %61
  %63 = trunc i64 %62 to i32
  %64 = call i32 @chdir_len(ptr noundef %57, i32 noundef %63)
  %65 = icmp slt i32 %64, 0
  br i1 %65, label %66, label %67

66:                                               ; preds = %53
  store i32 -1, ptr %5, align 4
  store i32 1, ptr %14, align 4
  br label %68

67:                                               ; preds = %53
  store i32 0, ptr %14, align 4
  br label %68

68:                                               ; preds = %67, %66, %52, %47, %34, %27
  call void @llvm.lifetime.end.p0(i64 24, ptr %13) #10
  call void @llvm.lifetime.end.p0(i64 8, ptr %12) #10
  call void @llvm.lifetime.end.p0(i64 8, ptr %11) #10
  %69 = load i32, ptr %14, align 4
  switch i32 %69, label %81 [
    i32 0, label %70
  ]

70:                                               ; preds = %68
  br label %71

71:                                               ; preds = %70, %4
  %72 = load ptr, ptr %6, align 8, !tbaa !12
  call void @llvm.memset.p0.i64(ptr align 2 %72, i8 0, i64 110, i1 false)
  %73 = load ptr, ptr %6, align 8, !tbaa !12
  %74 = getelementptr inbounds nuw %struct.sockaddr_un, ptr %73, i32 0, i32 0
  store i16 1, ptr %74, align 2, !tbaa !18
  %75 = load ptr, ptr %6, align 8, !tbaa !12
  %76 = getelementptr inbounds nuw %struct.sockaddr_un, ptr %75, i32 0, i32 1
  %77 = getelementptr inbounds [108 x i8], ptr %76, i64 0, i64 0
  %78 = load ptr, ptr %7, align 8, !tbaa !4
  %79 = load i32, ptr %10, align 4, !tbaa !9
  %80 = sext i32 %79 to i64
  call void @llvm.memcpy.p0.p0.i64(ptr align 2 %77, ptr align 1 %78, i64 %80, i1 false)
  store i32 0, ptr %5, align 4
  store i32 1, ptr %14, align 4
  br label %81

81:                                               ; preds = %71, %68
  call void @llvm.lifetime.end.p0(i64 4, ptr %10) #10
  %82 = load i32, ptr %5, align 4
  ret i32 %82
}